target datalayout = "e-m:e-p270:32:32-p271:32:32-p272:64:64-i64:64-i128:128-f80:128-n8:16:32:64-S128"
target triple = "x86_64-pc-linux-gnu"

@.str = private unnamed_addr constant [5 x i8] c"char\00", align 1
@.str.1 = private unnamed_addr constant [6 x i8] c"uchar\00", align 1
@.str.2 = private unnamed_addr constant [6 x i8] c"short\00", align 1
@.str.3 = private unnamed_addr constant [7 x i8] c"ushort\00", align 1
@.str.4 = private unnamed_addr constant [4 x i8] c"int\00", align 1
@.str.5 = private unnamed_addr constant [5 x i8] c"uint\00", align 1
@.str.6 = private unnamed_addr constant [6 x i8] c"float\00", align 1
@.str.7 = private unnamed_addr constant [7 x i8] c"double\00", align 1
@.str.9 = private unnamed_addr constant [5 x i8] c"int8\00", align 1
@.str.10 = private unnamed_addr constant [6 x i8] c"uint8\00", align 1
@.str.11 = private unnamed_addr constant [6 x i8] c"int16\00", align 1
@.str.12 = private unnamed_addr constant [7 x i8] c"uint16\00", align 1
@.str.13 = private unnamed_addr constant [6 x i8] c"int32\00", align 1
@.str.14 = private unnamed_addr constant [7 x i8] c"uint32\00", align 1
@.str.15 = private unnamed_addr constant [8 x i8] c"float32\00", align 1
@.str.16 = private unnamed_addr constant [8 x i8] c"float64\00", align 1

; Function Attrs: mustprogress nounwind uwtable
define dso_local noundef zeroext i8 @_ZN3igl7tinyply25property_type_from_stringERKNSt7__cxx1112basic_stringIcSt11char_traitsIcESaIcEEE(ptr noundef nonnull align 8 dereferenceable(32) %0) #4 personality ptr @__gxx_personality_v0 {
  %2 = alloca i8, align 1
  %3 = alloca ptr, align 8
  store ptr %0, ptr %3, align 8, !tbaa !16
  %4 = load ptr, ptr %3, align 8, !tbaa !16
  %5 = invoke noundef zeroext i1 @_ZSteqIcSt11char_traitsIcESaIcEEbRKNSt7__cxx1112basic_stringIT_T0_T1_EEPKS5_(ptr noundef nonnull align 8 dereferenceable(32) %4, ptr noundef @.str.9)
          to label %6 unwind label %85

6:                                                ; preds = %1
  br i1 %5, label %11, label %7

7:                                                ; preds = %6
  %8 = load ptr, ptr %3, align 8, !tbaa !16
  %9 = invoke noundef zeroext i1 @_ZSteqIcSt11char_traitsIcESaIcEEbRKNSt7__cxx1112basic_stringIT_T0_T1_EEPKS5_(ptr noundef nonnull align 8 dereferenceable(32) %8, ptr noundef @.str)
          to label %10 unwind label %85

10:                                               ; preds = %7
  br i1 %9, label %11, label %12

11:                                               ; preds = %10, %6
  store i8 1, ptr %2, align 1
  br label %83

12:                                               ; preds = %10
  %13 = load ptr, ptr %3, align 8, !tbaa !16
  %14 = invoke noundef zeroext i1 @_ZSteqIcSt11char_traitsIcESaIcEEbRKNSt7__cxx1112basic_stringIT_T0_T1_EEPKS5_(ptr noundef nonnull align 8 dereferenceable(32) %13, ptr noundef @.str.10)
          to label %15 unwind label %85

15:                                               ; preds = %12
  br i1 %14, label %20, label %16

16:                                               ; preds = %15
  %17 = load ptr, ptr %3, align 8, !tbaa !16
  %18 = invoke noundef zeroext i1 @_ZSteqIcSt11char_traitsIcESaIcEEbRKNSt7__cxx1112basic_stringIT_T0_T1_EEPKS5_(ptr noundef nonnull align 8 dereferenceable(32) %17, ptr noundef @.str.1)
          to label %19 unwind label %85

19:                                               ; preds = %16
  br i1 %18, label %20, label %21

20:                                               ; preds = %19, %15
  store i8 2, ptr %2, align 1
  br label %83

21:                                               ; preds = %19
  %22 = load ptr, ptr %3, align 8, !tbaa !16
  %23 = invoke noundef zeroext i1 @_ZSteqIcSt11char_traitsIcESaIcEEbRKNSt7__cxx1112basic_stringIT_T0_T1_EEPKS5_(ptr noundef nonnull align 8 dereferenceable(32) %22, ptr noundef @.str.11)
          to label %24 unwind label %85

24:                                               ; preds = %21
  br i1 %23, label %29, label %25

25:                                               ; preds = %24
  %26 = load ptr, ptr %3, align 8, !tbaa !16
  %27 = invoke noundef zeroext i1 @_ZSteqIcSt11char_traitsIcESaIcEEbRKNSt7__cxx1112basic_stringIT_T0_T1_EEPKS5_(ptr noundef nonnull align 8 dereferenceable(32) %26, ptr noundef @.str.2)
          to label %28 unwind label %85

28:                                               ; preds = %25
  br i1 %27, label %29, label %30

29:                                               ; preds = %28, %24
  store i8 3, ptr %2, align 1
  br label %83

30:                                               ; preds = %28
  %31 = load ptr, ptr %3, align 8, !tbaa !16
  %32 = invoke noundef zeroext i1 @_ZSteqIcSt11char_traitsIcESaIcEEbRKNSt7__cxx1112basic_stringIT_T0_T1_EEPKS5_(ptr noundef nonnull align 8 dereferenceable(32) %31, ptr noundef @.str.12)
          to label %33 unwind label %85

33:                                               ; preds = %30
  br i1 %32, label %38, label %34

34:                                               ; preds = %33
  %35 = load ptr, ptr %3, align 8, !tbaa !16
  %36 = invoke noundef zeroext i1 @_ZSteqIcSt11char_traitsIcESaIcEEbRKNSt7__cxx1112basic_stringIT_T0_T1_EEPKS5_(ptr noundef nonnull align 8 dereferenceable(32) %35, ptr noundef @.str.3)
          to label %37 unwind label %85

37:                                               ; preds = %34
  br i1 %36, label %38, label %39

38:                                               ; preds = %37, %33
  store i8 4, ptr %2, align 1
  br label %83

39:                                               ; preds = %37
  %40 = load ptr, ptr %3, align 8, !tbaa !16
  %41 = invoke noundef zeroext i1 @_ZSteqIcSt11char_traitsIcESaIcEEbRKNSt7__cxx1112basic_stringIT_T0_T1_EEPKS5_(ptr noundef nonnull align 8 dereferenceable(32) %40, ptr noundef @.str.13)
          to label %42 unwind label %85

42:                                               ; preds = %39
  br i1 %41, label %47, label %43

43:                                               ; preds = %42
  %44 = load ptr, ptr %3, align 8, !tbaa !16
  %45 = invoke noundef zeroext i1 @_ZSteqIcSt11char_traitsIcESaIcEEbRKNSt7__cxx1112basic_stringIT_T0_T1_EEPKS5_(ptr noundef nonnull align 8 dereferenceable(32) %44, ptr noundef @.str.4)
          to label %46 unwind label %85

46:                                               ; preds = %43
  br i1 %45, label %47, label %48

47:                                               ; preds = %46, %42
  store i8 5, ptr %2, align 1
  br label %83

48:                                               ; preds = %46
  %49 = load ptr, ptr %3, align 8, !tbaa !16
  %50 = invoke noundef zeroext i1 @_ZSteqIcSt11char_traitsIcESaIcEEbRKNSt7__cxx1112basic_stringIT_T0_T1_EEPKS5_(ptr noundef nonnull align 8 dereferenceable(32) %49, ptr noundef @.str.14)
          to label %51 unwind label %85

51:                                               ; preds = %48
  br i1 %50, label %56, label %52

52:                                               ; preds = %51
  %53 = load ptr, ptr %3, align 8, !tbaa !16
  %54 = invoke noundef zeroext i1 @_ZSteqIcSt11char_traitsIcESaIcEEbRKNSt7__cxx1112basic_stringIT_T0_T1_EEPKS5_(ptr noundef nonnull align 8 dereferenceable(32) %53, ptr noundef @.str.5)
          to label %55 unwind label %85

55:                                               ; preds = %52
  br i1 %54, label %56, label %57

56:                                               ; preds = %55, %51
  store i8 6, ptr %2, align 1
  br label %83

57:                                               ; preds = %55
  %58 = load ptr, ptr %3, align 8, !tbaa !16
  %59 = invoke noundef zeroext i1 @_ZSteqIcSt11char_traitsIcESaIcEEbRKNSt7__cxx1112basic_stringIT_T0_T1_EEPKS5_(ptr noundef nonnull align 8 dereferenceable(32) %58, ptr noundef @.str.15)
          to label %60 unwind label %85

60:                                               ; preds = %57
  br i1 %59, label %65, label %61

61:                                               ; preds = %60
  %62 = load ptr, ptr %3, align 8, !tbaa !16
  %63 = invoke noundef zeroext i1 @_ZSteqIcSt11char_traitsIcESaIcEEbRKNSt7__cxx1112basic_stringIT_T0_T1_EEPKS5_(ptr noundef nonnull align 8 dereferenceable(32) %62, ptr noundef @.str.6)
          to label %64 unwind label %85

64:                                               ; preds = %61
  br i1 %63, label %65, label %66

65:                                               ; preds = %64, %60
  store i8 7, ptr %2, align 1
  br label %83

66:                                               ; preds = %64
  %67 = load ptr, ptr %3, align 8, !tbaa !16
  %68 = invoke noundef zeroext i1 @_ZSteqIcSt11char_traitsIcESaIcEEbRKNSt7__cxx1112basic_stringIT_T0_T1_EEPKS5_(ptr noundef nonnull align 8 dereferenceable(32) %67, ptr noundef @.str.16)
          to label %69 unwind label %85

69:                                               ; preds = %66
  br i1 %68, label %74, label %70

70:                                               ; preds = %69
  %71 = load ptr, ptr %3, align 8, !tbaa !16
  %72 = invoke noundef zeroext i1 @_ZSteqIcSt11char_traitsIcESaIcEEbRKNSt7__cxx1112basic_stringIT_T0_T1_EEPKS5_(ptr noundef nonnull align 8 dereferenceable(32) %71, ptr noundef @.str.7)
          to label %73 unwind label %85

73:                                               ; preds = %70
  br i1 %72, label %74, label %75

74:                                               ; preds = %73, %69
  store i8 8, ptr %2, align 1
  br label %83

75:                                               ; preds = %73
  br label %76

76:                                               ; preds = %75
  br label %77

77:                                               ; preds = %76
  br label %78

78:                                               ; preds = %77
  br label %79

79:                                               ; preds = %78
  br label %80

80:                                               ; preds = %79
  br label %81

81:                                               ; preds = %80
  br label %82

82:                                               ; preds = %81
  store i8 0, ptr %2, align 1
  br label %83

83:                                               ; preds = %82, %74, %65, %56, %47, %38, %29, %20, %11
  %84 = load i8, ptr %2, align 1
  ret i8 %84

85:                                               ; preds = %70, %66, %61, %57, %52, %48, %43, %39, %34, %30, %25, %21, %16, %12, %7, %1
  %86 = landingpad { ptr, i32 }
          catch ptr null
  %87 = extractvalue { ptr, i32 } %86, 0
  call void @__clang_call_terminate(ptr %87) #23
  unreachable
}