; Function Attrs: mustprogress nounwind uwtable
define dso_local noundef zeroext range(i8 0, 9) i8 @_ZN3igl7tinyply25property_type_from_stringERKNSt7__cxx1112basic_stringIcSt11char_traitsIcESaIcEEE(ptr noundef nonnull align 8 dereferenceable(32) %0) local_unnamed_addr #2 personality ptr @__gxx_personality_v0 {
  %2 = getelementptr inbounds nuw i8, ptr %0, i64 8
  %3 = load i64, ptr %2, align 8, !tbaa !32
  switch i64 %3, label %_ZSteqIcSt11char_traitsIcESaIcEEbRKNSt7__cxx1112basic_stringIT_T0_T1_EEPKS5_.exit25.thread31 [
    i64 4, label %_ZSteqIcSt11char_traitsIcESaIcEEbRKNSt7__cxx1112basic_stringIT_T0_T1_EEPKS5_.exit
    i64 5, label %_ZSteqIcSt11char_traitsIcESaIcEEbRKNSt7__cxx1112basic_stringIT_T0_T1_EEPKS5_.exit19
  ]

_ZSteqIcSt11char_traitsIcESaIcEEbRKNSt7__cxx1112basic_stringIT_T0_T1_EEPKS5_.exit: ; preds = %1
  %4 = load ptr, ptr %0, align 8, !tbaa !28
  %bcmp.i = tail call i32 @bcmp(ptr noundef nonnull dereferenceable(4) %4, ptr noundef nonnull dereferenceable(4) @.str.9, i64 4)
  %5 = icmp eq i32 %bcmp.i, 0
  br i1 %5, label %_ZSteqIcSt11char_traitsIcESaIcEEbRKNSt7__cxx1112basic_stringIT_T0_T1_EEPKS5_.exit.thread, label %_ZSteqIcSt11char_traitsIcESaIcEEbRKNSt7__cxx1112basic_stringIT_T0_T1_EEPKS5_.exit17

_ZSteqIcSt11char_traitsIcESaIcEEbRKNSt7__cxx1112basic_stringIT_T0_T1_EEPKS5_.exit17: ; preds = %_ZSteqIcSt11char_traitsIcESaIcEEbRKNSt7__cxx1112basic_stringIT_T0_T1_EEPKS5_.exit
  %bcmp.i16 = tail call i32 @bcmp(ptr noundef nonnull dereferenceable(4) %4, ptr noundef nonnull dereferenceable(4) @.str, i64 4)
  %6 = icmp eq i32 %bcmp.i16, 0
  br i1 %6, label %_ZSteqIcSt11char_traitsIcESaIcEEbRKNSt7__cxx1112basic_stringIT_T0_T1_EEPKS5_.exit.thread, label %_ZSteqIcSt11char_traitsIcESaIcEEbRKNSt7__cxx1112basic_stringIT_T0_T1_EEPKS5_.exit25.thread31

_ZSteqIcSt11char_traitsIcESaIcEEbRKNSt7__cxx1112basic_stringIT_T0_T1_EEPKS5_.exit19: ; preds = %1
  %.pre = load ptr, ptr %0, align 8, !tbaa !28
  %bcmp.i18 = tail call i32 @bcmp(ptr %.pre, ptr nonnull @.str.10, i64 %3)
  %7 = icmp eq i32 %bcmp.i18, 0
  br i1 %7, label %_ZSteqIcSt11char_traitsIcESaIcEEbRKNSt7__cxx1112basic_stringIT_T0_T1_EEPKS5_.exit.thread, label %_ZSteqIcSt11char_traitsIcESaIcEEbRKNSt7__cxx1112basic_stringIT_T0_T1_EEPKS5_.exit21

_ZSteqIcSt11char_traitsIcESaIcEEbRKNSt7__cxx1112basic_stringIT_T0_T1_EEPKS5_.exit21: ; preds = %_ZSteqIcSt11char_traitsIcESaIcEEbRKNSt7__cxx1112basic_stringIT_T0_T1_EEPKS5_.exit19
  %bcmp.i20 = tail call i32 @bcmp(ptr noundef nonnull dereferenceable(5) %.pre, ptr noundef nonnull dereferenceable(5) @.str.1, i64 5)
  %8 = icmp eq i32 %bcmp.i20, 0
  br i1 %8, label %_ZSteqIcSt11char_traitsIcESaIcEEbRKNSt7__cxx1112basic_stringIT_T0_T1_EEPKS5_.exit.thread, label %_ZSteqIcSt11char_traitsIcESaIcEEbRKNSt7__cxx1112basic_stringIT_T0_T1_EEPKS5_.exit23

_ZSteqIcSt11char_traitsIcESaIcEEbRKNSt7__cxx1112basic_stringIT_T0_T1_EEPKS5_.exit23: ; preds = %_ZSteqIcSt11char_traitsIcESaIcEEbRKNSt7__cxx1112basic_stringIT_T0_T1_EEPKS5_.exit21
  %bcmp.i22 = tail call i32 @bcmp(ptr noundef nonnull dereferenceable(5) %.pre, ptr noundef nonnull dereferenceable(5) @.str.11, i64 5)
  %9 = icmp eq i32 %bcmp.i22, 0
  br i1 %9, label %_ZSteqIcSt11char_traitsIcESaIcEEbRKNSt7__cxx1112basic_stringIT_T0_T1_EEPKS5_.exit.thread, label %_ZSteqIcSt11char_traitsIcESaIcEEbRKNSt7__cxx1112basic_stringIT_T0_T1_EEPKS5_.exit25

_ZSteqIcSt11char_traitsIcESaIcEEbRKNSt7__cxx1112basic_stringIT_T0_T1_EEPKS5_.exit25: ; preds = %_ZSteqIcSt11char_traitsIcESaIcEEbRKNSt7__cxx1112basic_stringIT_T0_T1_EEPKS5_.exit23
  %bcmp.i24 = tail call i32 @bcmp(ptr noundef nonnull dereferenceable(5) %.pre, ptr noundef nonnull dereferenceable(5) @.str.2, i64 5)
  %10 = icmp eq i32 %bcmp.i24, 0
  br i1 %10, label %_ZSteqIcSt11char_traitsIcESaIcEEbRKNSt7__cxx1112basic_stringIT_T0_T1_EEPKS5_.exit.thread, label %_ZSteqIcSt11char_traitsIcESaIcEEbRKNSt7__cxx1112basic_stringIT_T0_T1_EEPKS5_.exit25.thread31

_ZSteqIcSt11char_traitsIcESaIcEEbRKNSt7__cxx1112basic_stringIT_T0_T1_EEPKS5_.exit25.thread31: ; preds = %_ZSteqIcSt11char_traitsIcESaIcEEbRKNSt7__cxx1112basic_stringIT_T0_T1_EEPKS5_.exit17, %1, %_ZSteqIcSt11char_traitsIcESaIcEEbRKNSt7__cxx1112basic_stringIT_T0_T1_EEPKS5_.exit25
  %11 = invoke noundef zeroext i1 @_ZSteqIcSt11char_traitsIcESaIcEEbRKNSt7__cxx1112basic_stringIT_T0_T1_EEPKS5_(ptr noundef nonnull align 8 dereferenceable(32) %0, ptr noundef nonnull @.str.12)
          to label %12 unwind label %40

12:                                               ; preds = %_ZSteqIcSt11char_traitsIcESaIcEEbRKNSt7__cxx1112basic_stringIT_T0_T1_EEPKS5_.exit25.thread31
  br i1 %11, label %_ZSteqIcSt11char_traitsIcESaIcEEbRKNSt7__cxx1112basic_stringIT_T0_T1_EEPKS5_.exit.thread, label %13

13:                                               ; preds = %12
  %14 = invoke noundef zeroext i1 @_ZSteqIcSt11char_traitsIcESaIcEEbRKNSt7__cxx1112basic_stringIT_T0_T1_EEPKS5_(ptr noundef nonnull align 8 dereferenceable(32) %0, ptr noundef nonnull @.str.3)
          to label %15 unwind label %40

15:                                               ; preds = %13
  br i1 %14, label %_ZSteqIcSt11char_traitsIcESaIcEEbRKNSt7__cxx1112basic_stringIT_T0_T1_EEPKS5_.exit.thread, label %16

16:                                               ; preds = %15
  %17 = invoke noundef zeroext i1 @_ZSteqIcSt11char_traitsIcESaIcEEbRKNSt7__cxx1112basic_stringIT_T0_T1_EEPKS5_(ptr noundef nonnull align 8 dereferenceable(32) %0, ptr noundef nonnull @.str.13)
          to label %18 unwind label %40

18:                                               ; preds = %16
  br i1 %17, label %_ZSteqIcSt11char_traitsIcESaIcEEbRKNSt7__cxx1112basic_stringIT_T0_T1_EEPKS5_.exit.thread, label %19

19:                                               ; preds = %18
  %20 = invoke noundef zeroext i1 @_ZSteqIcSt11char_traitsIcESaIcEEbRKNSt7__cxx1112basic_stringIT_T0_T1_EEPKS5_(ptr noundef nonnull align 8 dereferenceable(32) %0, ptr noundef nonnull @.str.4)
          to label %21 unwind label %40

21:                                               ; preds = %19
  br i1 %20, label %_ZSteqIcSt11char_traitsIcESaIcEEbRKNSt7__cxx1112basic_stringIT_T0_T1_EEPKS5_.exit.thread, label %22

22:                                               ; preds = %21
  %23 = invoke noundef zeroext i1 @_ZSteqIcSt11char_traitsIcESaIcEEbRKNSt7__cxx1112basic_stringIT_T0_T1_EEPKS5_(ptr noundef nonnull align 8 dereferenceable(32) %0, ptr noundef nonnull @.str.14)
          to label %24 unwind label %40

24:                                               ; preds = %22
  br i1 %23, label %_ZSteqIcSt11char_traitsIcESaIcEEbRKNSt7__cxx1112basic_stringIT_T0_T1_EEPKS5_.exit.thread, label %25

25:                                               ; preds = %24
  %26 = invoke noundef zeroext i1 @_ZSteqIcSt11char_traitsIcESaIcEEbRKNSt7__cxx1112basic_stringIT_T0_T1_EEPKS5_(ptr noundef nonnull align 8 dereferenceable(32) %0, ptr noundef nonnull @.str.5)
          to label %27 unwind label %40

27:                                               ; preds = %25
  br i1 %26, label %_ZSteqIcSt11char_traitsIcESaIcEEbRKNSt7__cxx1112basic_stringIT_T0_T1_EEPKS5_.exit.thread, label %28

28:                                               ; preds = %27
  %29 = invoke noundef zeroext i1 @_ZSteqIcSt11char_traitsIcESaIcEEbRKNSt7__cxx1112basic_stringIT_T0_T1_EEPKS5_(ptr noundef nonnull align 8 dereferenceable(32) %0, ptr noundef nonnull @.str.15)
          to label %30 unwind label %40

30:                                               ; preds = %28
  br i1 %29, label %_ZSteqIcSt11char_traitsIcESaIcEEbRKNSt7__cxx1112basic_stringIT_T0_T1_EEPKS5_.exit.thread, label %31

31:                                               ; preds = %30
  %32 = invoke noundef zeroext i1 @_ZSteqIcSt11char_traitsIcESaIcEEbRKNSt7__cxx1112basic_stringIT_T0_T1_EEPKS5_(ptr noundef nonnull align 8 dereferenceable(32) %0, ptr noundef nonnull @.str.6)
          to label %33 unwind label %40

33:                                               ; preds = %31
  br i1 %32, label %_ZSteqIcSt11char_traitsIcESaIcEEbRKNSt7__cxx1112basic_stringIT_T0_T1_EEPKS5_.exit.thread, label %34

34:                                               ; preds = %33
  %35 = invoke noundef zeroext i1 @_ZSteqIcSt11char_traitsIcESaIcEEbRKNSt7__cxx1112basic_stringIT_T0_T1_EEPKS5_(ptr noundef nonnull align 8 dereferenceable(32) %0, ptr noundef nonnull @.str.16)
          to label %36 unwind label %40

36:                                               ; preds = %34
  br i1 %35, label %_ZSteqIcSt11char_traitsIcESaIcEEbRKNSt7__cxx1112basic_stringIT_T0_T1_EEPKS5_.exit.thread, label %37

37:                                               ; preds = %36
  %38 = invoke noundef zeroext i1 @_ZSteqIcSt11char_traitsIcESaIcEEbRKNSt7__cxx1112basic_stringIT_T0_T1_EEPKS5_(ptr noundef nonnull align 8 dereferenceable(32) %0, ptr noundef nonnull @.str.7)
          to label %39 unwind label %40

39:                                               ; preds = %37
  %spec.select = select i1 %38, i8 8, i8 0
  br label %_ZSteqIcSt11char_traitsIcESaIcEEbRKNSt7__cxx1112basic_stringIT_T0_T1_EEPKS5_.exit.thread

_ZSteqIcSt11char_traitsIcESaIcEEbRKNSt7__cxx1112basic_stringIT_T0_T1_EEPKS5_.exit.thread: ; preds = %39, %36, %30, %33, %24, %27, %18, %21, %12, %15, %_ZSteqIcSt11char_traitsIcESaIcEEbRKNSt7__cxx1112basic_stringIT_T0_T1_EEPKS5_.exit23, %_ZSteqIcSt11char_traitsIcESaIcEEbRKNSt7__cxx1112basic_stringIT_T0_T1_EEPKS5_.exit25, %_ZSteqIcSt11char_traitsIcESaIcEEbRKNSt7__cxx1112basic_stringIT_T0_T1_EEPKS5_.exit19, %_ZSteqIcSt11char_traitsIcESaIcEEbRKNSt7__cxx1112basic_stringIT_T0_T1_EEPKS5_.exit21, %_ZSteqIcSt11char_traitsIcESaIcEEbRKNSt7__cxx1112basic_stringIT_T0_T1_EEPKS5_.exit, %_ZSteqIcSt11char_traitsIcESaIcEEbRKNSt7__cxx1112basic_stringIT_T0_T1_EEPKS5_.exit17
  %.0 = phi i8 [ 1, %_ZSteqIcSt11char_traitsIcESaIcEEbRKNSt7__cxx1112basic_stringIT_T0_T1_EEPKS5_.exit17 ], [ 1, %_ZSteqIcSt11char_traitsIcESaIcEEbRKNSt7__cxx1112basic_stringIT_T0_T1_EEPKS5_.exit ], [ 2, %_ZSteqIcSt11char_traitsIcESaIcEEbRKNSt7__cxx1112basic_stringIT_T0_T1_EEPKS5_.exit21 ], [ 2, %_ZSteqIcSt11char_traitsIcESaIcEEbRKNSt7__cxx1112basic_stringIT_T0_T1_EEPKS5_.exit19 ], [ 3, %_ZSteqIcSt11char_traitsIcESaIcEEbRKNSt7__cxx1112basic_stringIT_T0_T1_EEPKS5_.exit25 ], [ 3, %_ZSteqIcSt11char_traitsIcESaIcEEbRKNSt7__cxx1112basic_stringIT_T0_T1_EEPKS5_.exit23 ], [ 4, %15 ], [ 4, %12 ], [ 5, %21 ], [ 5, %18 ], [ 6, %27 ], [ 6, %24 ], [ 7, %33 ], [ 7, %30 ], [ 8, %36 ], [ %spec.select, %39 ]
  ret i8 %.0

40:                                               ; preds = %37, %34, %31, %28, %25, %22, %19, %16, %13, %_ZSteqIcSt11char_traitsIcESaIcEEbRKNSt7__cxx1112basic_stringIT_T0_T1_EEPKS5_.exit25.thread31
  %41 = landingpad { ptr, i32 }
          catch ptr null
  %42 = extractvalue { ptr, i32 } %41, 0
  tail call void @__clang_call_terminate(ptr %42) #31
  unreachable
}